; Function Attrs: nounwind uwtable
define dso_local ptr @string_list_lookup(ptr noundef readonly captures(none) %0, ptr noundef %1) local_unnamed_addr #4 {
  %3 = getelementptr inbounds nuw i8, ptr %0, i64 8
  %4 = load i64, ptr %3, align 8, !tbaa !4
  %5 = trunc i64 %4 to i32
  %6 = getelementptr inbounds nuw i8, ptr %0, i64 32
  %7 = load ptr, ptr %6, align 8, !tbaa !12
  %.not.i = icmp eq ptr %7, null
  %spec.select.i = select i1 %.not.i, ptr @strcmp, ptr %7
  %8 = icmp sgt i32 %5, 0
  br i1 %8, label %.lr.ph.i, label %get_entry_index.exit.thread

.lr.ph.i:                                         ; preds = %2, %19
  %.02236.i = phi i32 [ %.224.i, %19 ], [ -1, %2 ]
  %.02535.i = phi i32 [ %.227.i, %19 ], [ %5, %2 ]
  %9 = sub nsw i32 %.02535.i, %.02236.i
  %10 = sdiv i32 %9, 2
  %11 = add nsw i32 %10, %.02236.i
  %12 = load ptr, ptr %0, align 8, !tbaa !13
  %13 = sext i32 %11 to i64
  %14 = getelementptr inbounds %struct.string_list_item, ptr %12, i64 %13
  %15 = load ptr, ptr %14, align 8, !tbaa !14
  %16 = tail call i32 %spec.select.i(ptr noundef %1, ptr noundef %15) #11
  %17 = icmp slt i32 %16, 0
  br i1 %17, label %19, label %18

18:                                               ; preds = %.lr.ph.i
  %.not30.i = icmp eq i32 %16, 0
  br i1 %.not30.i, label %get_entry_index.exit, label %19

19:                                               ; preds = %18, %.lr.ph.i
  %.227.i = phi i32 [ %11, %.lr.ph.i ], [ %.02535.i, %18 ]
  %.224.i = phi i32 [ %.02236.i, %.lr.ph.i ], [ %11, %18 ]
  %20 = add nsw i32 %.224.i, 1
  %21 = icmp slt i32 %20, %.227.i
  br i1 %21, label %.lr.ph.i, label %get_entry_index.exit.thread, !llvm.loop !17

get_entry_index.exit:                             ; preds = %18
  %22 = load ptr, ptr %0, align 8, !tbaa !13
  %23 = getelementptr inbounds %struct.string_list_item, ptr %22, i64 %13
  br label %get_entry_index.exit.thread

get_entry_index.exit.thread:                      ; preds = %19, %2, %get_entry_index.exit
  %.0 = phi ptr [ %23, %get_entry_index.exit ], [ null, %2 ], [ null, %19 ]
  ret ptr %.0
}